target datalayout = "e-m:e-p270:32:32-p271:32:32-p272:64:64-i64:64-i128:128-f80:128-n8:16:32:64-S128"
target triple = "x86_64-pc-linux-gnu"

%"class.cvc5::internal::NodeTemplate" = type { ptr }
%"class.cvc5::internal::NodeTemplate.367" = type { ptr }
%"class.cvc5::internal::theory::arith::nl::transcendental::SineSolver" = type { %"class.cvc5::internal::EnvObj", ptr, %"class.std::map", %"class.cvc5::internal::NodeTemplate", %"class.cvc5::internal::NodeTemplate", %"class.std::vector", %"class.std::map.3" }
%"class.cvc5::internal::EnvObj" = type { ptr, ptr }
%"class.std::map" = type { %"class.std::_Rb_tree" }
%"class.std::_Rb_tree" = type { %"struct.std::_Rb_tree<cvc5::internal::NodeTemplate<true>, std::pair<const cvc5::internal::NodeTemplate<true>, bool>, std::_Select1st<std::pair<const cvc5::internal::NodeTemplate<true>, bool>>, std::less<cvc5::internal::NodeTemplate<true>>>::_Rb_tree_impl" }
%"struct.std::_Rb_tree<cvc5::internal::NodeTemplate<true>, std::pair<const cvc5::internal::NodeTemplate<true>, bool>, std::_Select1st<std::pair<const cvc5::internal::NodeTemplate<true>, bool>>, std::less<cvc5::internal::NodeTemplate<true>>>::_Rb_tree_impl" = type { [8 x i8], %"struct.std::_Rb_tree_header" }
%"struct.std::_Rb_tree_header" = type { %"struct.std::_Rb_tree_node_base", i64 }
%"struct.std::_Rb_tree_node_base" = type { i32, ptr, ptr, ptr }
%"class.std::vector" = type { %"struct.std::_Vector_base" }
%"struct.std::_Vector_base" = type { %"struct.std::_Vector_base<cvc5::internal::NodeTemplate<true>, std::allocator<cvc5::internal::NodeTemplate<true>>>::_Vector_impl" }
%"struct.std::_Vector_base<cvc5::internal::NodeTemplate<true>, std::allocator<cvc5::internal::NodeTemplate<true>>>::_Vector_impl" = type { %"struct.std::_Vector_base<cvc5::internal::NodeTemplate<true>, std::allocator<cvc5::internal::NodeTemplate<true>>>::_Vector_impl_data" }
%"struct.std::_Vector_base<cvc5::internal::NodeTemplate<true>, std::allocator<cvc5::internal::NodeTemplate<true>>>::_Vector_impl_data" = type { ptr, ptr, ptr }
%"class.std::map.3" = type { %"class.std::_Rb_tree.4" }
%"class.std::_Rb_tree.4" = type { %"struct.std::_Rb_tree<cvc5::internal::NodeTemplate<true>, std::pair<const cvc5::internal::NodeTemplate<true>, cvc5::internal::NodeTemplate<true>>, std::_Select1st<std::pair<const cvc5::internal::NodeTemplate<true>, cvc5::internal::NodeTemplate<true>>>, std::less<cvc5::internal::NodeTemplate<true>>>::_Rb_tree_impl" }
%"struct.std::_Rb_tree<cvc5::internal::NodeTemplate<true>, std::pair<const cvc5::internal::NodeTemplate<true>, cvc5::internal::NodeTemplate<true>>, std::_Select1st<std::pair<const cvc5::internal::NodeTemplate<true>, cvc5::internal::NodeTemplate<true>>>, std::less<cvc5::internal::NodeTemplate<true>>>::_Rb_tree_impl" = type { [8 x i8], %"struct.std::_Rb_tree_header" }
%"struct.std::pair.524" = type { %"class.cvc5::internal::NodeTemplate", %"class.cvc5::internal::NodeTemplate" }

; Function Attrs: mustprogress nounwind uwtable
define linkonce_odr hidden void @_ZN4cvc58internal12NodeTemplateILb0EED2Ev(ptr noundef nonnull align 8 dereferenceable(8) %0) unnamed_addr #5 comdat align 2 {
  %2 = alloca ptr, align 8
  store ptr %0, ptr %2, align 8, !tbaa !57
  ret void
}

; Function Attrs: mustprogress nounwind uwtable
define linkonce_odr hidden noundef i32 @_ZNK4cvc58internal6theory5arith2nl14transcendental10SineSolver17regionToConvexityEi(ptr noundef nonnull align 8 dereferenceable(160) %0, i32 noundef %1) #5 comdat align 2 {
  %3 = alloca i32, align 4
  %4 = alloca ptr, align 8
  %5 = alloca i32, align 4
  store ptr %0, ptr %4, align 8, !tbaa !3
  store i32 %1, ptr %5, align 4, !tbaa !49
  %6 = load i32, ptr %5, align 4, !tbaa !49
  switch i32 %6, label %9 [
    i32 1, label %7
    i32 2, label %7
    i32 3, label %8
    i32 4, label %8
  ]

7:                                                ; preds = %2, %2
  store i32 1, ptr %3, align 4
  br label %10

8:                                                ; preds = %2, %2
  store i32 0, ptr %3, align 4
  br label %10

9:                                                ; preds = %2
  store i32 2, ptr %3, align 4
  br label %10

10:                                               ; preds = %9, %8, %7
  %11 = load i32, ptr %3, align 4
  ret i32 %11
}

; Function Attrs: mustprogress nounwind uwtable
define linkonce_odr hidden void @_ZN4cvc58internal12NodeTemplateILb0EEC2ERKS2_(ptr noundef nonnull align 8 dereferenceable(8) %0, ptr noundef nonnull align 8 dereferenceable(8) %1) unnamed_addr #5 comdat align 2 {
  %3 = alloca ptr, align 8
  %4 = alloca ptr, align 8
  store ptr %0, ptr %3, align 8, !tbaa !57
  store ptr %1, ptr %4, align 8, !tbaa !57
  %5 = load ptr, ptr %3, align 8
  %6 = load ptr, ptr %4, align 8, !tbaa !57
  %7 = getelementptr inbounds nuw %"class.cvc5::internal::NodeTemplate.367", ptr %6, i32 0, i32 0
  %8 = load ptr, ptr %7, align 8, !tbaa !59
  %9 = getelementptr inbounds nuw %"class.cvc5::internal::NodeTemplate.367", ptr %5, i32 0, i32 0
  store ptr %8, ptr %9, align 8, !tbaa !59
  ret void
}

; Function Attrs: mustprogress uwtable
define hidden void @_ZN4cvc58internal6theory5arith2nl14transcendental10SineSolver14doSecantLemmasENS0_12NodeTemplateILb0EEES7_S7_S7_jji(ptr noundef nonnull align 8 dereferenceable(160) %0, ptr noundef %1, ptr noundef %2, ptr noundef %3, ptr noundef %4, i32 noundef %5, i32 noundef %6, i32 noundef %7) #4 align 2 personality ptr @__gxx_personality_v0 {
  %9 = alloca ptr, align 8
  %10 = alloca ptr, align 8
  %11 = alloca ptr, align 8
  %12 = alloca ptr, align 8
  %13 = alloca ptr, align 8
  %14 = alloca i32, align 4
  %15 = alloca i32, align 4
  %16 = alloca i32, align 4
  %17 = alloca %"struct.std::pair.524", align 8
  %18 = alloca %"class.cvc5::internal::NodeTemplate.367", align 8
  %19 = alloca %"class.cvc5::internal::NodeTemplate.367", align 8
  %20 = alloca ptr, align 8
  %21 = alloca i32, align 4
  %22 = alloca %"class.cvc5::internal::NodeTemplate.367", align 8
  %23 = alloca %"class.cvc5::internal::NodeTemplate.367", align 8
  %24 = alloca %"class.cvc5::internal::NodeTemplate.367", align 8
  %25 = alloca %"class.cvc5::internal::NodeTemplate.367", align 8
  store ptr %0, ptr %9, align 8, !tbaa !3
  store ptr %1, ptr %10, align 8, !tbaa !57
  store ptr %2, ptr %11, align 8, !tbaa !57
  store ptr %3, ptr %12, align 8, !tbaa !57
  store ptr %4, ptr %13, align 8, !tbaa !57
  store i32 %5, ptr %14, align 4, !tbaa !49
  store i32 %6, ptr %15, align 4, !tbaa !49
  store i32 %7, ptr %16, align 4, !tbaa !49
  %26 = load ptr, ptr %9, align 8
  %27 = getelementptr inbounds nuw %"class.cvc5::internal::theory::arith::nl::transcendental::SineSolver", ptr %26, i32 0, i32 1
  %28 = load ptr, ptr %27, align 8, !tbaa !14
  call void @llvm.lifetime.start.p0(i64 16, ptr %17) #3
  call void @_ZN4cvc58internal12NodeTemplateILb0EEC2ERKS2_(ptr noundef nonnull align 8 dereferenceable(8) %18, ptr noundef nonnull align 8 dereferenceable(8) %1)
  invoke void @_ZN4cvc58internal12NodeTemplateILb0EEC2ERKS2_(ptr noundef nonnull align 8 dereferenceable(8) %19, ptr noundef nonnull align 8 dereferenceable(8) %3)
          to label %29 unwind label %43

29:                                               ; preds = %8
  %30 = load i32, ptr %14, align 4, !tbaa !49
  %31 = load i32, ptr %16, align 4, !tbaa !49
  invoke void @_ZN4cvc58internal6theory5arith2nl14transcendental10SineSolver15getSecantBoundsENS0_12NodeTemplateILb0EEES7_ji(ptr dead_on_unwind writable sret(%"struct.std::pair.524") align 8 %17, ptr noundef nonnull align 8 dereferenceable(160) %26, ptr noundef %18, ptr noundef %19, i32 noundef %30, i32 noundef %31)
          to label %32 unwind label %47

32:                                               ; preds = %29
  invoke void @_ZN4cvc58internal12NodeTemplateILb0EEC2ERKS2_(ptr noundef nonnull align 8 dereferenceable(8) %22, ptr noundef nonnull align 8 dereferenceable(8) %2)
          to label %33 unwind label %51

33:                                               ; preds = %32
  invoke void @_ZN4cvc58internal12NodeTemplateILb0EEC2ERKS2_(ptr noundef nonnull align 8 dereferenceable(8) %23, ptr noundef nonnull align 8 dereferenceable(8) %3)
          to label %34 unwind label %55

34:                                               ; preds = %33
  invoke void @_ZN4cvc58internal12NodeTemplateILb0EEC2ERKS2_(ptr noundef nonnull align 8 dereferenceable(8) %24, ptr noundef nonnull align 8 dereferenceable(8) %4)
          to label %35 unwind label %59

35:                                               ; preds = %34
  invoke void @_ZN4cvc58internal12NodeTemplateILb0EEC2ERKS2_(ptr noundef nonnull align 8 dereferenceable(8) %25, ptr noundef nonnull align 8 dereferenceable(8) %1)
          to label %36 unwind label %63

36:                                               ; preds = %35
  %37 = load i32, ptr %16, align 4, !tbaa !49
  %38 = invoke noundef i32 @_ZNK4cvc58internal6theory5arith2nl14transcendental10SineSolver17regionToConvexityEi(ptr noundef nonnull align 8 dereferenceable(160) %26, i32 noundef %37)
          to label %39 unwind label %67

39:                                               ; preds = %36
  %40 = load i32, ptr %14, align 4, !tbaa !49
  %41 = load i32, ptr %15, align 4, !tbaa !49
  invoke void @_ZN4cvc58internal6theory5arith2nl14transcendental19TranscendentalState14doSecantLemmasERKSt4pairINS0_12NodeTemplateILb1EEES8_ENS7_ILb0EEESC_SC_SC_NS4_9ConvexityEjj(ptr noundef nonnull align 8 dereferenceable(696) %28, ptr noundef nonnull align 8 dereferenceable(16) %17, ptr noundef %22, ptr noundef %23, ptr noundef %24, ptr noundef %25, i32 noundef %38, i32 noundef %40, i32 noundef %41)
          to label %42 unwind label %67

42:                                               ; preds = %39
  call void @_ZN4cvc58internal12NodeTemplateILb0EED2Ev(ptr noundef nonnull align 8 dereferenceable(8) %25) #3
  call void @_ZN4cvc58internal12NodeTemplateILb0EED2Ev(ptr noundef nonnull align 8 dereferenceable(8) %24) #3
  call void @_ZN4cvc58internal12NodeTemplateILb0EED2Ev(ptr noundef nonnull align 8 dereferenceable(8) %23) #3
  call void @_ZN4cvc58internal12NodeTemplateILb0EED2Ev(ptr noundef nonnull align 8 dereferenceable(8) %22) #3
  call void @_ZNSt4pairIN4cvc58internal12NodeTemplateILb1EEES3_ED2Ev(ptr noundef nonnull align 8 dereferenceable(16) %17) #3
  call void @_ZN4cvc58internal12NodeTemplateILb0EED2Ev(ptr noundef nonnull align 8 dereferenceable(8) %19) #3
  call void @_ZN4cvc58internal12NodeTemplateILb0EED2Ev(ptr noundef nonnull align 8 dereferenceable(8) %18) #3
  call void @llvm.lifetime.end.p0(i64 16, ptr %17) #3
  ret void

43:                                               ; preds = %8
  %44 = landingpad { ptr, i32 }
          cleanup
  %45 = extractvalue { ptr, i32 } %44, 0
  store ptr %45, ptr %20, align 8
  %46 = extractvalue { ptr, i32 } %44, 1
  store i32 %46, ptr %21, align 4
  br label %76

47:                                               ; preds = %29
  %48 = landingpad { ptr, i32 }
          cleanup
  %49 = extractvalue { ptr, i32 } %48, 0
  store ptr %49, ptr %20, align 8
  %50 = extractvalue { ptr, i32 } %48, 1
  store i32 %50, ptr %21, align 4
  br label %75

51:                                               ; preds = %32
  %52 = landingpad { ptr, i32 }
          cleanup
  %53 = extractvalue { ptr, i32 } %52, 0
  store ptr %53, ptr %20, align 8
  %54 = extractvalue { ptr, i32 } %52, 1
  store i32 %54, ptr %21, align 4
  br label %74

55:                                               ; preds = %33
  %56 = landingpad { ptr, i32 }
          cleanup
  %57 = extractvalue { ptr, i32 } %56, 0
  store ptr %57, ptr %20, align 8
  %58 = extractvalue { ptr, i32 } %56, 1
  store i32 %58, ptr %21, align 4
  br label %73

59:                                               ; preds = %34
  %60 = landingpad { ptr, i32 }
          cleanup
  %61 = extractvalue { ptr, i32 } %60, 0
  store ptr %61, ptr %20, align 8
  %62 = extractvalue { ptr, i32 } %60, 1
  store i32 %62, ptr %21, align 4
  br label %72

63:                                               ; preds = %35
  %64 = landingpad { ptr, i32 }
          cleanup
  %65 = extractvalue { ptr, i32 } %64, 0
  store ptr %65, ptr %20, align 8
  %66 = extractvalue { ptr, i32 } %64, 1
  store i32 %66, ptr %21, align 4
  br label %71

67:                                               ; preds = %39, %36
  %68 = landingpad { ptr, i32 }
          cleanup
  %69 = extractvalue { ptr, i32 } %68, 0
  store ptr %69, ptr %20, align 8
  %70 = extractvalue { ptr, i32 } %68, 1
  store i32 %70, ptr %21, align 4
  call void @_ZN4cvc58internal12NodeTemplateILb0EED2Ev(ptr noundef nonnull align 8 dereferenceable(8) %25) #3
  br label %71

71:                                               ; preds = %67, %63
  call void @_ZN4cvc58internal12NodeTemplateILb0EED2Ev(ptr noundef nonnull align 8 dereferenceable(8) %24) #3
  br label %72

72:                                               ; preds = %71, %59
  call void @_ZN4cvc58internal12NodeTemplateILb0EED2Ev(ptr noundef nonnull align 8 dereferenceable(8) %23) #3
  br label %73

73:                                               ; preds = %72, %55
  call void @_ZN4cvc58internal12NodeTemplateILb0EED2Ev(ptr noundef nonnull align 8 dereferenceable(8) %22) #3
  br label %74

74:                                               ; preds = %73, %51
  call void @_ZNSt4pairIN4cvc58internal12NodeTemplateILb1EEES3_ED2Ev(ptr noundef nonnull align 8 dereferenceable(16) %17) #3
  br label %75

75:                                               ; preds = %74, %47
  call void @_ZN4cvc58internal12NodeTemplateILb0EED2Ev(ptr noundef nonnull align 8 dereferenceable(8) %19) #3
  br label %76

76:                                               ; preds = %75, %43
  call void @_ZN4cvc58internal12NodeTemplateILb0EED2Ev(ptr noundef nonnull align 8 dereferenceable(8) %18) #3
  call void @llvm.lifetime.end.p0(i64 16, ptr %17) #3
  br label %77

77:                                               ; preds = %76
  %78 = load ptr, ptr %20, align 8
  %79 = load i32, ptr %21, align 4
  %80 = insertvalue { ptr, i32 } poison, ptr %78, 0
  %81 = insertvalue { ptr, i32 } %80, i32 %79, 1
  resume { ptr, i32 } %81
}