; Function Attrs: mustprogress uwtable
define hidden void @_ZN4cvc58internal6theory5arith2nl14transcendental10SineSolver14doSecantLemmasENS0_12NodeTemplateILb0EEES7_S7_S7_jji(ptr noundef nonnull align 8 dereferenceable(160) %0, ptr noundef readonly captures(none) %1, ptr noundef readonly captures(none) %2, ptr noundef readonly captures(none) %3, ptr noundef readonly captures(none) %4, i32 noundef %5, i32 noundef %6, i32 noundef %7) local_unnamed_addr #3 align 2 personality ptr @__gxx_personality_v0 {
  %9 = alloca %"struct.std::pair.524", align 8
  %10 = alloca %"class.cvc5::internal::NodeTemplate.367", align 8
  %11 = alloca %"class.cvc5::internal::NodeTemplate.367", align 8
  %12 = alloca %"class.cvc5::internal::NodeTemplate.367", align 8
  %13 = alloca %"class.cvc5::internal::NodeTemplate.367", align 8
  %14 = alloca %"class.cvc5::internal::NodeTemplate.367", align 8
  %15 = alloca %"class.cvc5::internal::NodeTemplate.367", align 8
  %16 = getelementptr inbounds nuw i8, ptr %0, i64 16
  %17 = load ptr, ptr %16, align 8, !tbaa !6
  call void @llvm.lifetime.start.p0(i64 16, ptr nonnull %9) #20
  %18 = load ptr, ptr %1, align 8, !tbaa !52
  store ptr %18, ptr %10, align 8, !tbaa !52
  %19 = load ptr, ptr %3, align 8, !tbaa !52
  store ptr %19, ptr %11, align 8, !tbaa !52
  call void @_ZN4cvc58internal6theory5arith2nl14transcendental10SineSolver15getSecantBoundsENS0_12NodeTemplateILb0EEES7_ji(ptr dead_on_unwind nonnull writable sret(%"struct.std::pair.524") align 8 %9, ptr noundef nonnull align 8 dereferenceable(160) %0, ptr noundef nonnull %10, ptr noundef nonnull %11, i32 noundef %5, i32 noundef %7)
  %20 = load ptr, ptr %2, align 8, !tbaa !52
  store ptr %20, ptr %12, align 8, !tbaa !52
  %21 = load ptr, ptr %3, align 8, !tbaa !52
  store ptr %21, ptr %13, align 8, !tbaa !52
  %22 = load ptr, ptr %4, align 8, !tbaa !52
  store ptr %22, ptr %14, align 8, !tbaa !52
  %23 = load ptr, ptr %1, align 8, !tbaa !52
  store ptr %23, ptr %15, align 8, !tbaa !52
  %switch.tableidx = add i32 %7, -1
  %24 = icmp ult i32 %switch.tableidx, 4
  br i1 %24, label %switch.lookup, label %_ZNK4cvc58internal6theory5arith2nl14transcendental10SineSolver17regionToConvexityEi.exit

switch.lookup:                                    ; preds = %8
  %25 = zext nneg i32 %switch.tableidx to i64
  %switch.gep = getelementptr inbounds nuw [4 x i32], ptr @switch.table._ZN4cvc58internal6theory5arith2nl14transcendental10SineSolver14doSecantLemmasENS0_12NodeTemplateILb0EEES7_S7_S7_jji, i64 0, i64 %25
  %switch.load = load i32, ptr %switch.gep, align 4
  br label %_ZNK4cvc58internal6theory5arith2nl14transcendental10SineSolver17regionToConvexityEi.exit

_ZNK4cvc58internal6theory5arith2nl14transcendental10SineSolver17regionToConvexityEi.exit: ; preds = %8, %switch.lookup
  %.0.i = phi i32 [ %switch.load, %switch.lookup ], [ 2, %8 ]
  invoke void @_ZN4cvc58internal6theory5arith2nl14transcendental19TranscendentalState14doSecantLemmasERKSt4pairINS0_12NodeTemplateILb1EEES8_ENS7_ILb0EEESC_SC_SC_NS4_9ConvexityEjj(ptr noundef nonnull align 8 dereferenceable(696) %17, ptr noundef nonnull align 8 dereferenceable(16) %9, ptr noundef nonnull %12, ptr noundef nonnull %13, ptr noundef nonnull %14, ptr noundef nonnull %15, i32 noundef %.0.i, i32 noundef %5, i32 noundef %6)
          to label %26 unwind label %54

26:                                               ; preds = %_ZNK4cvc58internal6theory5arith2nl14transcendental10SineSolver17regionToConvexityEi.exit
  %27 = getelementptr inbounds nuw i8, ptr %9, i64 8
  %28 = load ptr, ptr %27, align 8, !tbaa !40
  %29 = load i64, ptr %28, align 8
  %30 = and i64 %29, 1152920405095219200
  %.not.i.i.i = icmp eq i64 %30, 1152920405095219200
  br i1 %.not.i.i.i, label %_ZN4cvc58internal12NodeTemplateILb1EED2Ev.exit.i, label %31, !prof !41

31:                                               ; preds = %26
  %32 = add i64 %29, 1152920405095219200
  %33 = and i64 %32, 1152920405095219200
  %34 = and i64 %29, -1152920405095219201
  %35 = or disjoint i64 %33, %34
  store i64 %35, ptr %28, align 8
  %36 = icmp eq i64 %33, 0
  br i1 %36, label %37, label %_ZN4cvc58internal12NodeTemplateILb1EED2Ev.exit.i, !prof !41

37:                                               ; preds = %31
  invoke void @_ZN4cvc58internal4expr9NodeValue15markForDeletionEv(ptr noundef nonnull align 8 dereferenceable(24) %28)
          to label %_ZN4cvc58internal12NodeTemplateILb1EED2Ev.exit.i unwind label %38

38:                                               ; preds = %37
  %39 = landingpad { ptr, i32 }
          catch ptr null
  %40 = extractvalue { ptr, i32 } %39, 0
  call void @__clang_call_terminate(ptr %40) #22
  unreachable

_ZN4cvc58internal12NodeTemplateILb1EED2Ev.exit.i: ; preds = %37, %31, %26
  %41 = load ptr, ptr %9, align 8, !tbaa !40
  %42 = load i64, ptr %41, align 8
  %43 = and i64 %42, 1152920405095219200
  %.not.i.i1.i = icmp eq i64 %43, 1152920405095219200
  br i1 %.not.i.i1.i, label %_ZNSt4pairIN4cvc58internal12NodeTemplateILb1EEES3_ED2Ev.exit, label %44, !prof !41

44:                                               ; preds = %_ZN4cvc58internal12NodeTemplateILb1EED2Ev.exit.i
  %45 = add i64 %42, 1152920405095219200
  %46 = and i64 %45, 1152920405095219200
  %47 = and i64 %42, -1152920405095219201
  %48 = or disjoint i64 %46, %47
  store i64 %48, ptr %41, align 8
  %49 = icmp eq i64 %46, 0
  br i1 %49, label %50, label %_ZNSt4pairIN4cvc58internal12NodeTemplateILb1EEES3_ED2Ev.exit, !prof !41

50:                                               ; preds = %44
  invoke void @_ZN4cvc58internal4expr9NodeValue15markForDeletionEv(ptr noundef nonnull align 8 dereferenceable(24) %41)
          to label %_ZNSt4pairIN4cvc58internal12NodeTemplateILb1EEES3_ED2Ev.exit unwind label %51

51:                                               ; preds = %50
  %52 = landingpad { ptr, i32 }
          catch ptr null
  %53 = extractvalue { ptr, i32 } %52, 0
  call void @__clang_call_terminate(ptr %53) #22
  unreachable

_ZNSt4pairIN4cvc58internal12NodeTemplateILb1EEES3_ED2Ev.exit: ; preds = %_ZN4cvc58internal12NodeTemplateILb1EED2Ev.exit.i, %44, %50
  call void @llvm.lifetime.end.p0(i64 16, ptr nonnull %9) #20
  ret void

54:                                               ; preds = %_ZNK4cvc58internal6theory5arith2nl14transcendental10SineSolver17regionToConvexityEi.exit
  %55 = landingpad { ptr, i32 }
          cleanup
  call void @_ZNSt4pairIN4cvc58internal12NodeTemplateILb1EEES3_ED2Ev(ptr noundef nonnull align 8 dereferenceable(16) %9) #20
  call void @llvm.lifetime.end.p0(i64 16, ptr nonnull %9) #20
  resume { ptr, i32 } %55
}